; ModuleID = '16/103.c'
source_filename = "16/103.c"
target datalayout = "e-m:e-p270:32:32-p271:32:32-p272:64:64-i64:64-f80:128-n8:16:32:64-S128"
target triple = "x86_64-pc-linux-gnu"

@.str = private unnamed_addr constant [3 x i8] c"%d\00", align 1
@.str.1 = private unnamed_addr constant [6 x i8] c"00001\00", align 1

; Function Attrs: noinline nounwind uwtable
define dso_local i32 @main() #0 {
  %1 = alloca i32, align 4
  %2 = alloca i32, align 4
  %3 = alloca i32, align 4
  %4 = alloca i32, align 4
  %5 = alloca i32, align 4
  store i32 0, i32* %1, align 4
  %6 = call i32 (i8*, ...) @__isoc99_scanf(i8* getelementptr inbounds ([3 x i8], [3 x i8]* @.str, i64 0, i64 0), i32* %2)
  %7 = load i32, i32* %2, align 4
  %8 = icmp sgt i32 %7, 9999
  br i1 %8, label %9, label %11

9:                                                ; preds = %0
  %10 = call i32 (i8*, ...) @printf(i8* getelementptr inbounds ([6 x i8], [6 x i8]* @.str.1, i64 0, i64 0))
  br label %29

11:                                               ; preds = %0
  %12 = load i32, i32* %2, align 4
  %13 = icmp sgt i32 %12, 999
  br i1 %13, label %14, label %15

14:                                               ; preds = %11
  store i32 4, i32* %4, align 4
  br label %28

15:                                               ; preds = %11
  %16 = load i32, i32* %2, align 4
  %17 = icmp sgt i32 %16, 99
  br i1 %17, label %18, label %19

18:                                               ; preds = %15
  store i32 3, i32* %4, align 4
  br label %27

19:                                               ; preds = %15
  %20 = load i32, i32* %2, align 4
  %21 = icmp sgt i32 %20, 9
  br i1 %21, label %22, label %23

22:                                               ; preds = %19
  store i32 2, i32* %4, align 4
  br label %26

23:                                               ; preds = %19
  %24 = load i32, i32* %2, align 4
  %25 = call i32 (i8*, ...) @printf(i8* getelementptr inbounds ([3 x i8], [3 x i8]* @.str, i64 0, i64 0), i32 %24)
  br label %26

26:                                               ; preds = %23, %22
  br label %27

27:                                               ; preds = %26, %18
  br label %28

28:                                               ; preds = %27, %14
  br label %29

29:                                               ; preds = %28, %9
  store i32 1, i32* %3, align 4
  br label %30

30:                                               ; preds = %42, %29
  %31 = load i32, i32* %3, align 4
  %32 = load i32, i32* %4, align 4
  %33 = add nsw i32 %32, 1
  %34 = icmp slt i32 %31, %33
  br i1 %34, label %35, label %45

35:                                               ; preds = %30
  %36 = load i32, i32* %2, align 4
  %37 = srem i32 %36, 10
  store i32 %37, i32* %5, align 4
  %38 = load i32, i32* %2, align 4
  %39 = sdiv i32 %38, 10
  store i32 %39, i32* %2, align 4
  %40 = load i32, i32* %5, align 4
  %41 = call i32 (i8*, ...) @printf(i8* getelementptr inbounds ([3 x i8], [3 x i8]* @.str, i64 0, i64 0), i32 %40)
  br label %42

42:                                               ; preds = %35
  %43 = load i32, i32* %3, align 4
  %44 = add nsw i32 %43, 1
  store i32 %44, i32* %3, align 4
  br label %30

45:                                               ; preds = %30
  ret i32 0
}

declare dso_local i32 @__isoc99_scanf(i8*, ...) #1

declare dso_local i32 @printf(i8*, ...) #1


!llvm.module.flags = !{!0}
!llvm.ident = !{!1}

!0 = !{i32 1, !"wchar_size", i32 4}
!1 = !{!"clang version 10.0.0-4ubuntu1 "}
